; ModuleID = 'source-C-CXX/55/2610.c'
source_filename = "source-C-CXX/55/2610.c"
target datalayout = "e-m:e-p270:32:32-p271:32:32-p272:64:64-i64:64-f80:128-n8:16:32:64-S128"
target triple = "x86_64-pc-linux-gnu"

@.str = private unnamed_addr constant [3 x i8] c"%d\00", align 1
@.str.1 = private unnamed_addr constant [12 x i8] c"%d%d%d%d%d\0A\00", align 1
@.str.2 = private unnamed_addr constant [10 x i8] c"%d%d%d%d\0A\00", align 1
@.str.3 = private unnamed_addr constant [8 x i8] c"%d%d%d\0A\00", align 1
@.str.4 = private unnamed_addr constant [6 x i8] c"%d%d\0A\00", align 1
@.str.5 = private unnamed_addr constant [4 x i8] c"%d\0A\00", align 1

; Function Attrs: nofree nounwind sspstrong uwtable
define dso_local i32 @main() local_unnamed_addr #0 {
  %1 = alloca i32, align 4
  %2 = bitcast i32* %1 to i8*
  call void @llvm.lifetime.start.p0i8(i64 4, i8* nonnull %2) #3
  %3 = call i32 (i8*, ...) @__isoc99_scanf(i8* getelementptr inbounds ([3 x i8], [3 x i8]* @.str, i64 0, i64 0), i32* nonnull %1)
  %4 = load i32, i32* %1, align 4, !tbaa !5
  %5 = icmp sgt i32 %4, 9999
  br i1 %5, label %6, label %29

6:                                                ; preds = %0
  %7 = urem i32 %4, 10
  %8 = urem i32 %4, 100
  %9 = sub nsw i32 %8, %7
  %10 = trunc i32 %9 to i8
  %11 = sdiv i8 %10, 10
  %12 = zext i8 %11 to i32
  %13 = urem i32 %4, 1000
  %14 = mul nuw nsw i32 %12, 10
  %15 = add nuw nsw i32 %14, %7
  %16 = sub nsw i32 %13, %15
  %17 = trunc i32 %16 to i16
  %18 = sdiv i16 %17, 100
  %19 = zext i16 %18 to i32
  %20 = urem i32 %4, 10000
  %21 = mul nsw i32 %19, -100
  %22 = sub nsw i32 %20, %15
  %23 = add nsw i32 %22, %21
  %24 = trunc i32 %23 to i16
  %25 = sdiv i16 %24, 1000
  %26 = zext i16 %25 to i32
  %27 = udiv i32 %4, 10000
  %28 = call i32 (i8*, ...) @printf(i8* nonnull dereferenceable(1) getelementptr inbounds ([12 x i8], [12 x i8]* @.str.1, i64 0, i64 0), i32 %7, i32 %12, i32 %19, i32 %26, i32 %27)
  br label %75

29:                                               ; preds = %0
  %30 = icmp sgt i32 %4, 999
  br i1 %30, label %31, label %50

31:                                               ; preds = %29
  %32 = trunc i32 %4 to i16
  %33 = urem i16 %32, 10
  %34 = zext i16 %33 to i32
  %35 = urem i16 %32, 100
  %36 = sub nsw i16 %35, %33
  %37 = trunc i16 %36 to i8
  %38 = sdiv i8 %37, 10
  %39 = zext i8 %38 to i32
  %40 = urem i16 %32, 1000
  %41 = zext i8 %38 to i16
  %42 = mul nsw i16 %41, -10
  %43 = sub nsw i16 %40, %33
  %44 = add nsw i16 %43, %42
  %45 = sdiv i16 %44, 100
  %46 = zext i16 %45 to i32
  %47 = udiv i16 %32, 1000
  %48 = zext i16 %47 to i32
  %49 = call i32 (i8*, ...) @printf(i8* nonnull dereferenceable(1) getelementptr inbounds ([10 x i8], [10 x i8]* @.str.2, i64 0, i64 0), i32 %34, i32 %39, i32 %46, i32 %48)
  br label %75

50:                                               ; preds = %29
  %51 = icmp sgt i32 %4, 99
  br i1 %51, label %52, label %64

52:                                               ; preds = %50
  %53 = trunc i32 %4 to i16
  %54 = urem i16 %53, 10
  %55 = zext i16 %54 to i32
  %56 = urem i16 %53, 100
  %57 = sub nsw i16 %56, %54
  %58 = trunc i16 %57 to i8
  %59 = sdiv i8 %58, 10
  %60 = zext i8 %59 to i32
  %61 = udiv i16 %53, 100
  %62 = zext i16 %61 to i32
  %63 = call i32 (i8*, ...) @printf(i8* nonnull dereferenceable(1) getelementptr inbounds ([8 x i8], [8 x i8]* @.str.3, i64 0, i64 0), i32 %55, i32 %60, i32 %62)
  br label %75

64:                                               ; preds = %50
  %65 = icmp sgt i32 %4, 9
  br i1 %65, label %66, label %73

66:                                               ; preds = %64
  %67 = trunc i32 %4 to i8
  %68 = urem i8 %67, 10
  %69 = zext i8 %68 to i32
  %70 = udiv i8 %67, 10
  %71 = zext i8 %70 to i32
  %72 = call i32 (i8*, ...) @printf(i8* nonnull dereferenceable(1) getelementptr inbounds ([6 x i8], [6 x i8]* @.str.4, i64 0, i64 0), i32 %69, i32 %71)
  br label %75

73:                                               ; preds = %64
  %74 = call i32 (i8*, ...) @printf(i8* nonnull dereferenceable(1) getelementptr inbounds ([4 x i8], [4 x i8]* @.str.5, i64 0, i64 0), i32 %4)
  br label %75

75:                                               ; preds = %31, %66, %73, %52, %6
  call void @llvm.lifetime.end.p0i8(i64 4, i8* nonnull %2) #3
  ret i32 0
}

; Function Attrs: argmemonly mustprogress nofree nosync nounwind willreturn
declare void @llvm.lifetime.start.p0i8(i64 immarg, i8* nocapture) #1

; Function Attrs: nofree nounwind
declare noundef i32 @__isoc99_scanf(i8* nocapture noundef readonly, ...) local_unnamed_addr #2

; Function Attrs: nofree nounwind
declare noundef i32 @printf(i8* nocapture noundef readonly, ...) local_unnamed_addr #2

; Function Attrs: argmemonly mustprogress nofree nosync nounwind willreturn
declare void @llvm.lifetime.end.p0i8(i64 immarg, i8* nocapture) #1


!llvm.module.flags = !{!0, !1, !2, !3}
!llvm.ident = !{!4}

!0 = !{i32 1, !"wchar_size", i32 4}
!1 = !{i32 7, !"PIC Level", i32 2}
!2 = !{i32 7, !"PIE Level", i32 2}
!3 = !{i32 7, !"uwtable", i32 1}
!4 = !{!"clang version 13.0.0"}
!5 = !{!6, !6, i64 0}
!6 = !{!"int", !7, i64 0}
!7 = !{!"omnipotent char", !8, i64 0}
!8 = !{!"Simple C/C++ TBAA"}
